; Function Attrs: mustprogress uwtable
define dso_local noundef nonnull ptr @_ZNK3net19SourceAddressTokens3NewEPN6google8protobuf5ArenaE(ptr nocapture nonnull readnone align 8 %this, ptr noundef %arena) unnamed_addr #1 align 2 personality ptr @__gxx_personality_v0 {
entry:
  %call = tail call noalias noundef nonnull dereferenceable(56) ptr @_Znwm(i64 noundef 56) #15
  store ptr getelementptr inbounds ({ [18 x ptr] }, ptr @_ZTVN3net19SourceAddressTokensE, i64 0, i32 0, i64 2), ptr %call, align 8
  %_arena_ptr_.i = getelementptr inbounds i8, ptr %call, i64 16
  store ptr null, ptr %_arena_ptr_.i, align 8
  %tokens_.i = getelementptr inbounds i8, ptr %call, i64 32
  tail call void @llvm.memset.p0.i64(ptr noundef nonnull align 8 dereferenceable(24) %tokens_.i, i8 0, i64 24, i1 false)
  %call.i2.i = invoke noundef nonnull align 8 dereferenceable(32) ptr @_ZN6google8protobuf8internal14GetEmptyStringB5cxx11Ev()
          to label %invoke.cont unwind label %lpad2.i

lpad2.i:                                          ; preds = %entry
  %0 = landingpad { ptr, i32 }
          cleanup
  tail call void @_ZN6google8protobuf16RepeatedPtrFieldIN3net18SourceAddressTokenEED2Ev(ptr noundef nonnull align 8 dereferenceable(24) %tokens_.i) #14
  tail call void @_ZN6google8protobuf11MessageLiteD2Ev(ptr noundef nonnull align 8 dereferenceable(8) %call) #14
  tail call void @_ZdlPv(ptr noundef nonnull %call) #16
  resume { ptr, i32 } %0

invoke.cont:                                      ; preds = %entry
  %_cached_size_.i.i = getelementptr inbounds i8, ptr %call, i64 28
  store i32 0, ptr %_cached_size_.i.i, align 4
  %_unknown_fields_.i.i = getelementptr inbounds i8, ptr %call, i64 8
  %1 = load ptr, ptr @_ZN6google8protobuf8internal13empty_string_B5cxx11E, align 8
  store ptr %1, ptr %_unknown_fields_.i.i, align 8
  %_has_bits_.i.i = getelementptr inbounds i8, ptr %call, i64 24
  store i32 0, ptr %_has_bits_.i.i, align 8
  %cmp.not = icmp eq ptr %arena, null
  br i1 %cmp.not, label %if.end, label %if.then

if.then:                                          ; preds = %invoke.cont
  tail call void @_ZN6google8protobuf5Arena11AddListNodeEPvPFvS2_E(ptr noundef nonnull align 8 dereferenceable(136) %arena, ptr noundef nonnull %call, ptr noundef nonnull @_ZN6google8protobuf8internal19arena_delete_objectIN3net19SourceAddressTokensEEEvPv)
  br label %if.end

if.end:                                           ; preds = %if.then, %invoke.cont
  ret ptr %call
}